; ModuleID = '20/53.c'
source_filename = "20/53.c"
target datalayout = "e-m:e-p270:32:32-p271:32:32-p272:64:64-i64:64-f80:128-n8:16:32:64-S128"
target triple = "x86_64-pc-linux-gnu"

@.str = private unnamed_addr constant [6 x i8] c"%s %s\00", align 1
@.str.1 = private unnamed_addr constant [3 x i8] c"%c\00", align 1
@.str.2 = private unnamed_addr constant [2 x i8] c"\0A\00", align 1

; Function Attrs: noinline nounwind uwtable
define dso_local void @main() #0 {
  %1 = alloca i32, align 4
  %2 = alloca i32, align 4
  %3 = alloca i32, align 4
  %4 = alloca i32, align 4
  %5 = alloca [11 x i8], align 1
  %6 = alloca [4 x i8], align 1
  br label %7

7:                                                ; preds = %86, %0
  %8 = getelementptr inbounds [11 x i8], [11 x i8]* %5, i64 0, i64 0
  %9 = getelementptr inbounds [4 x i8], [4 x i8]* %6, i64 0, i64 0
  %10 = call i32 (i8*, ...) @__isoc99_scanf(i8* getelementptr inbounds ([6 x i8], [6 x i8]* @.str, i64 0, i64 0), i8* %8, i8* %9)
  %11 = icmp ne i32 %10, -1
  br i1 %11, label %12, label %88

12:                                               ; preds = %7
  store i32 0, i32* %4, align 4
  store i32 1, i32* %1, align 4
  br label %13

13:                                               ; preds = %34, %12
  %14 = load i32, i32* %1, align 4
  %15 = sext i32 %14 to i64
  %16 = getelementptr inbounds [11 x i8], [11 x i8]* %5, i64 0, i64 0
  %17 = call i64 @strlen(i8* %16) #3
  %18 = icmp ult i64 %15, %17
  br i1 %18, label %19, label %37

19:                                               ; preds = %13
  %20 = load i32, i32* %1, align 4
  %21 = sext i32 %20 to i64
  %22 = getelementptr inbounds [11 x i8], [11 x i8]* %5, i64 0, i64 %21
  %23 = load i8, i8* %22, align 1
  %24 = sext i8 %23 to i32
  %25 = load i32, i32* %4, align 4
  %26 = sext i32 %25 to i64
  %27 = getelementptr inbounds [11 x i8], [11 x i8]* %5, i64 0, i64 %26
  %28 = load i8, i8* %27, align 1
  %29 = sext i8 %28 to i32
  %30 = icmp sgt i32 %24, %29
  br i1 %30, label %31, label %33

31:                                               ; preds = %19
  %32 = load i32, i32* %1, align 4
  store i32 %32, i32* %4, align 4
  br label %33

33:                                               ; preds = %31, %19
  br label %34

34:                                               ; preds = %33
  %35 = load i32, i32* %1, align 4
  %36 = add nsw i32 %35, 1
  store i32 %36, i32* %1, align 4
  br label %13

37:                                               ; preds = %13
  store i32 0, i32* %2, align 4
  br label %38

38:                                               ; preds = %50, %37
  %39 = load i32, i32* %2, align 4
  %40 = load i32, i32* %4, align 4
  %41 = add nsw i32 %40, 1
  %42 = icmp slt i32 %39, %41
  br i1 %42, label %43, label %53

43:                                               ; preds = %38
  %44 = load i32, i32* %2, align 4
  %45 = sext i32 %44 to i64
  %46 = getelementptr inbounds [11 x i8], [11 x i8]* %5, i64 0, i64 %45
  %47 = load i8, i8* %46, align 1
  %48 = sext i8 %47 to i32
  %49 = call i32 (i8*, ...) @printf(i8* getelementptr inbounds ([3 x i8], [3 x i8]* @.str.1, i64 0, i64 0), i32 %48)
  br label %50

50:                                               ; preds = %43
  %51 = load i32, i32* %2, align 4
  %52 = add nsw i32 %51, 1
  store i32 %52, i32* %2, align 4
  br label %38

53:                                               ; preds = %38
  store i32 0, i32* %3, align 4
  br label %54

54:                                               ; preds = %64, %53
  %55 = load i32, i32* %3, align 4
  %56 = icmp slt i32 %55, 3
  br i1 %56, label %57, label %67

57:                                               ; preds = %54
  %58 = load i32, i32* %3, align 4
  %59 = sext i32 %58 to i64
  %60 = getelementptr inbounds [4 x i8], [4 x i8]* %6, i64 0, i64 %59
  %61 = load i8, i8* %60, align 1
  %62 = sext i8 %61 to i32
  %63 = call i32 (i8*, ...) @printf(i8* getelementptr inbounds ([3 x i8], [3 x i8]* @.str.1, i64 0, i64 0), i32 %62)
  br label %64

64:                                               ; preds = %57
  %65 = load i32, i32* %3, align 4
  %66 = add nsw i32 %65, 1
  store i32 %66, i32* %3, align 4
  br label %54

67:                                               ; preds = %54
  %68 = load i32, i32* %4, align 4
  %69 = add nsw i32 %68, 1
  store i32 %69, i32* %2, align 4
  br label %70

70:                                               ; preds = %83, %67
  %71 = load i32, i32* %2, align 4
  %72 = sext i32 %71 to i64
  %73 = getelementptr inbounds [11 x i8], [11 x i8]* %5, i64 0, i64 0
  %74 = call i64 @strlen(i8* %73) #3
  %75 = icmp ult i64 %72, %74
  br i1 %75, label %76, label %86

76:                                               ; preds = %70
  %77 = load i32, i32* %2, align 4
  %78 = sext i32 %77 to i64
  %79 = getelementptr inbounds [11 x i8], [11 x i8]* %5, i64 0, i64 %78
  %80 = load i8, i8* %79, align 1
  %81 = sext i8 %80 to i32
  %82 = call i32 (i8*, ...) @printf(i8* getelementptr inbounds ([3 x i8], [3 x i8]* @.str.1, i64 0, i64 0), i32 %81)
  br label %83

83:                                               ; preds = %76
  %84 = load i32, i32* %2, align 4
  %85 = add nsw i32 %84, 1
  store i32 %85, i32* %2, align 4
  br label %70

86:                                               ; preds = %70
  %87 = call i32 (i8*, ...) @printf(i8* getelementptr inbounds ([2 x i8], [2 x i8]* @.str.2, i64 0, i64 0))
  br label %7

88:                                               ; preds = %7
  ret void
}

declare dso_local i32 @__isoc99_scanf(i8*, ...) #1

; Function Attrs: nounwind readonly
declare dso_local i64 @strlen(i8*) #2

declare dso_local i32 @printf(i8*, ...) #1


!llvm.module.flags = !{!0}
!llvm.ident = !{!1}

!0 = !{i32 1, !"wchar_size", i32 4}
!1 = !{!"clang version 10.0.0-4ubuntu1 "}
